target datalayout = "e-m:e-p270:32:32-p271:32:32-p272:64:64-i64:64-i128:128-f80:128-n8:16:32:64-S128"
target triple = "x86_64-pc-linux-gnu"

%struct.Vec_Ptr_t_ = type { i32, i32, ptr }
%struct.Vec_Int_t_ = type { i32, i32, ptr }

; Function Attrs: nounwind uwtable
define internal i32 @Abc_InfoHasBit(ptr noundef %0, i32 noundef %1) #0 {
  %3 = alloca ptr, align 8
  %4 = alloca i32, align 4
  store ptr %0, ptr %3, align 8
  store i32 %1, ptr %4, align 4
  %5 = load ptr, ptr %3, align 8
  %6 = load i32, ptr %4, align 4
  %7 = ashr i32 %6, 5
  %8 = sext i32 %7 to i64
  %9 = getelementptr inbounds i32, ptr %5, i64 %8
  %10 = load i32, ptr %9, align 4
  %11 = load i32, ptr %4, align 4
  %12 = and i32 %11, 31
  %13 = shl i32 1, %12
  %14 = and i32 %10, %13
  %15 = icmp ugt i32 %14, 0
  %16 = zext i1 %15 to i32
  ret i32 %16
}

; Function Attrs: nounwind uwtable
define internal i32 @Vec_IntEntry(ptr noundef %0, i32 noundef %1) #0 {
  %3 = alloca ptr, align 8
  %4 = alloca i32, align 4
  store ptr %0, ptr %3, align 8
  store i32 %1, ptr %4, align 4
  %5 = load ptr, ptr %3, align 8
  %6 = getelementptr inbounds %struct.Vec_Int_t_, ptr %5, i32 0, i32 2
  %7 = load ptr, ptr %6, align 8
  %8 = load i32, ptr %4, align 4
  %9 = sext i32 %8 to i64
  %10 = getelementptr inbounds i32, ptr %7, i64 %9
  %11 = load i32, ptr %10, align 4
  ret i32 %11
}

; Function Attrs: nounwind uwtable
define internal i32 @Abc_Base2Log(i32 noundef %0) #0 {
  %2 = alloca i32, align 4
  %3 = alloca i32, align 4
  %4 = alloca i32, align 4
  store i32 %0, ptr %3, align 4
  %5 = load i32, ptr %3, align 4
  %6 = icmp ult i32 %5, 2
  br i1 %6, label %7, label %9

7:                                                ; preds = %1
  %8 = load i32, ptr %3, align 4
  store i32 %8, ptr %2, align 4
  br label %23

9:                                                ; preds = %1
  store i32 0, ptr %4, align 4
  %10 = load i32, ptr %3, align 4
  %11 = add i32 %10, -1
  store i32 %11, ptr %3, align 4
  br label %12

12:                                               ; preds = %16, %9
  %13 = load i32, ptr %3, align 4
  %14 = icmp ne i32 %13, 0
  br i1 %14, label %15, label %21

15:                                               ; preds = %12
  br label %16

16:                                               ; preds = %15
  %17 = load i32, ptr %3, align 4
  %18 = lshr i32 %17, 1
  store i32 %18, ptr %3, align 4
  %19 = load i32, ptr %4, align 4
  %20 = add nsw i32 %19, 1
  store i32 %20, ptr %4, align 4
  br label %12, !llvm.loop !27

21:                                               ; preds = %12
  %22 = load i32, ptr %4, align 4
  store i32 %22, ptr %2, align 4
  br label %23

23:                                               ; preds = %21, %7
  %24 = load i32, ptr %2, align 4
  ret i32 %24
}

; Function Attrs: nounwind uwtable
define internal i32 @Vec_IntSize(ptr noundef %0) #0 {
  %2 = alloca ptr, align 8
  store ptr %0, ptr %2, align 8
  %3 = load ptr, ptr %2, align 8
  %4 = getelementptr inbounds %struct.Vec_Int_t_, ptr %3, i32 0, i32 1
  %5 = load i32, ptr %4, align 4
  ret i32 %5
}

; Function Attrs: nounwind uwtable
define i32 @Abc_NtkSuppCharCommon(ptr noundef %0, ptr noundef %1) #0 {
  %3 = alloca ptr, align 8
  %4 = alloca ptr, align 8
  %5 = alloca i32, align 4
  %6 = alloca i32, align 4
  %7 = alloca i32, align 4
  store ptr %0, ptr %3, align 8
  store ptr %1, ptr %4, align 8
  store i32 0, ptr %7, align 4
  store i32 0, ptr %5, align 4
  br label %8

8:                                                ; preds = %25, %2
  %9 = load i32, ptr %5, align 4
  %10 = load ptr, ptr %4, align 8
  %11 = call i32 @Vec_IntSize(ptr noundef %10)
  %12 = icmp slt i32 %9, %11
  br i1 %12, label %13, label %17

13:                                               ; preds = %8
  %14 = load ptr, ptr %4, align 8
  %15 = load i32, ptr %5, align 4
  %16 = call i32 @Vec_IntEntry(ptr noundef %14, i32 noundef %15)
  store i32 %16, ptr %6, align 4
  br label %17

17:                                               ; preds = %13, %8
  %18 = phi i1 [ false, %8 ], [ true, %13 ]
  br i1 %18, label %19, label %28

19:                                               ; preds = %17
  %20 = load ptr, ptr %3, align 8
  %21 = load i32, ptr %6, align 4
  %22 = call i32 @Abc_InfoHasBit(ptr noundef %20, i32 noundef %21)
  %23 = load i32, ptr %7, align 4
  %24 = add nsw i32 %23, %22
  store i32 %24, ptr %7, align 4
  br label %25

25:                                               ; preds = %19
  %26 = load i32, ptr %5, align 4
  %27 = add nsw i32 %26, 1
  store i32 %27, ptr %5, align 4
  br label %8, !llvm.loop !25

28:                                               ; preds = %17
  %29 = load i32, ptr %7, align 4
  ret i32 %29
}

; Function Attrs: nounwind uwtable
define internal ptr @Vec_PtrEntry(ptr noundef %0, i32 noundef %1) #0 {
  %3 = alloca ptr, align 8
  %4 = alloca i32, align 4
  store ptr %0, ptr %3, align 8
  store i32 %1, ptr %4, align 4
  %5 = load ptr, ptr %3, align 8
  %6 = getelementptr inbounds %struct.Vec_Ptr_t_, ptr %5, i32 0, i32 2
  %7 = load ptr, ptr %6, align 8
  %8 = load i32, ptr %4, align 4
  %9 = sext i32 %8 to i64
  %10 = getelementptr inbounds ptr, ptr %7, i64 %9
  %11 = load ptr, ptr %10, align 8
  ret ptr %11
}

; Function Attrs: nounwind uwtable
define internal i32 @Vec_PtrSize(ptr noundef %0) #0 {
  %2 = alloca ptr, align 8
  store ptr %0, ptr %2, align 8
  %3 = load ptr, ptr %2, align 8
  %4 = getelementptr inbounds %struct.Vec_Ptr_t_, ptr %3, i32 0, i32 1
  %5 = load i32, ptr %4, align 4
  ret i32 %5
}

; Function Attrs: nounwind uwtable
define i32 @Abc_NtkPartitionSmartFindPart(ptr noundef %0, ptr noundef %1, ptr noundef %2, i32 noundef %3, ptr noundef %4) #0 {
  %6 = alloca i32, align 4
  %7 = alloca ptr, align 8
  %8 = alloca ptr, align 8
  %9 = alloca ptr, align 8
  %10 = alloca i32, align 4
  %11 = alloca ptr, align 8
  %12 = alloca ptr, align 8
  %13 = alloca i32, align 4
  %14 = alloca i32, align 4
  %15 = alloca i32, align 4
  %16 = alloca i32, align 4
  %17 = alloca i32, align 4
  %18 = alloca i32, align 4
  %19 = alloca i32, align 4
  store ptr %0, ptr %7, align 8
  store ptr %1, ptr %8, align 8
  store ptr %2, ptr %9, align 8
  store i32 %3, ptr %10, align 4
  store ptr %4, ptr %11, align 8
  store i32 -1, ptr %19, align 4
  store i32 0, ptr %16, align 4
  store i32 0, ptr %17, align 4
  br label %20

20:                                               ; preds = %84, %5
  %21 = load i32, ptr %17, align 4
  %22 = load ptr, ptr %7, align 8
  %23 = call i32 @Vec_PtrSize(ptr noundef %22)
  %24 = icmp slt i32 %21, %23
  br i1 %24, label %25, label %29

25:                                               ; preds = %20
  %26 = load ptr, ptr %7, align 8
  %27 = load i32, ptr %17, align 4
  %28 = call ptr @Vec_PtrEntry(ptr noundef %26, i32 noundef %27)
  store ptr %28, ptr %12, align 8
  br label %29

29:                                               ; preds = %25, %20
  %30 = phi i1 [ false, %20 ], [ true, %25 ]
  br i1 %30, label %31, label %87

31:                                               ; preds = %29
  %32 = load ptr, ptr %9, align 8
  %33 = load i32, ptr %17, align 4
  %34 = call ptr @Vec_PtrEntry(ptr noundef %32, i32 noundef %33)
  %35 = load ptr, ptr %11, align 8
  %36 = call i32 @Abc_NtkSuppCharCommon(ptr noundef %34, ptr noundef %35)
  store i32 %36, ptr %18, align 4
  %37 = load i32, ptr %18, align 4
  %38 = icmp eq i32 %37, 0
  br i1 %38, label %39, label %40

39:                                               ; preds = %31
  br label %84

40:                                               ; preds = %31
  %41 = load i32, ptr %18, align 4
  %42 = load ptr, ptr %11, align 8
  %43 = call i32 @Vec_IntSize(ptr noundef %42)
  %44 = icmp eq i32 %41, %43
  br i1 %44, label %45, label %47

45:                                               ; preds = %40
  %46 = load i32, ptr %17, align 4
  store i32 %46, ptr %6, align 4
  br label %93

47:                                               ; preds = %40
  %48 = load i32, ptr %10, align 4
  %49 = icmp sgt i32 %48, 0
  br i1 %49, label %50, label %57

50:                                               ; preds = %47
  %51 = load ptr, ptr %12, align 8
  %52 = call i32 @Vec_IntSize(ptr noundef %51)
  %53 = load i32, ptr %10, align 4
  %54 = mul nsw i32 2, %53
  %55 = icmp sge i32 %52, %54
  br i1 %55, label %56, label %57

56:                                               ; preds = %50
  br label %84

57:                                               ; preds = %50, %47
  %58 = load i32, ptr %18, align 4
  %59 = mul nsw i32 1000, %58
  %60 = load ptr, ptr %11, align 8
  %61 = call i32 @Vec_IntSize(ptr noundef %60)
  %62 = sdiv i32 %59, %61
  store i32 %62, ptr %13, align 4
  %63 = load ptr, ptr %12, align 8
  %64 = call i32 @Vec_IntSize(ptr noundef %63)
  %65 = icmp slt i32 %64, 100
  br i1 %65, label %66, label %67

66:                                               ; preds = %57
  store i32 1, ptr %14, align 4
  br label %73

67:                                               ; preds = %57
  %68 = load ptr, ptr %12, align 8
  %69 = call i32 @Vec_IntSize(ptr noundef %68)
  %70 = sub nsw i32 %69, 100
  %71 = call i32 @Abc_Base2Log(i32 noundef %70)
  %72 = add nsw i32 1, %71
  store i32 %72, ptr %14, align 4
  br label %73

73:                                               ; preds = %67, %66
  %74 = load i32, ptr %13, align 4
  %75 = load i32, ptr %14, align 4
  %76 = sdiv i32 %74, %75
  store i32 %76, ptr %15, align 4
  %77 = load i32, ptr %16, align 4
  %78 = load i32, ptr %15, align 4
  %79 = icmp slt i32 %77, %78
  br i1 %79, label %80, label %83

80:                                               ; preds = %73
  %81 = load i32, ptr %15, align 4
  store i32 %81, ptr %16, align 4
  %82 = load i32, ptr %17, align 4
  store i32 %82, ptr %19, align 4
  br label %83

83:                                               ; preds = %80, %73
  br label %84

84:                                               ; preds = %83, %56, %39
  %85 = load i32, ptr %17, align 4
  %86 = add nsw i32 %85, 1
  store i32 %86, ptr %17, align 4
  br label %20, !llvm.loop !26

87:                                               ; preds = %29
  %88 = load i32, ptr %16, align 4
  %89 = icmp slt i32 %88, 75
  br i1 %89, label %90, label %91

90:                                               ; preds = %87
  store i32 -1, ptr %6, align 4
  br label %93

91:                                               ; preds = %87
  %92 = load i32, ptr %19, align 4
  store i32 %92, ptr %6, align 4
  br label %93

93:                                               ; preds = %91, %90, %45
  %94 = load i32, ptr %6, align 4
  ret i32 %94
}