; Function Attrs: nofree norecurse nosync nounwind memory(read, inaccessiblemem: none) uwtable
define i32 @Abc_NtkPartitionSmartFindPart(ptr noundef readonly captures(none) %0, ptr readnone captures(none) %1, ptr noundef readonly captures(none) %2, i32 noundef %3, ptr noundef readonly captures(none) %4) local_unnamed_addr #7 {
  %6 = getelementptr i8, ptr %0, i64 4
  %.val = load i32, ptr %6, align 4
  %7 = icmp sgt i32 %.val, 0
  br i1 %7, label %.lr.ph, label %.critedge.thread

.lr.ph:                                           ; preds = %5
  %8 = getelementptr i8, ptr %0, i64 8
  %.val37 = load ptr, ptr %8, align 8
  %9 = getelementptr i8, ptr %2, i64 8
  %.val36 = load ptr, ptr %9, align 8
  %10 = getelementptr i8, ptr %4, i64 4
  %.val9.i = load i32, ptr %10, align 4
  %11 = icmp sgt i32 %.val9.i, 0
  %wide.trip.count.i = zext nneg i32 %.val9.i to i64
  %12 = shl nuw nsw i32 %3, 1
  br i1 %11, label %.lr.ph.split.us, label %.critedge.thread

.lr.ph.split.us:                                  ; preds = %.lr.ph
  %13 = icmp sgt i32 %3, 0
  %14 = getelementptr i8, ptr %4, i64 8
  %.val.i.us = load ptr, ptr %14, align 8
  %wide.trip.count65 = zext nneg i32 %.val to i64
  br i1 %13, label %.lr.ph.i.us.us, label %.lr.ph.i.us

.lr.ph.i.us.us:                                   ; preds = %.lr.ph.split.us, %Abc_NtkSuppCharCommon.exit.thread.us.us
  %indvars.iv62 = phi i64 [ %indvars.iv.next63, %Abc_NtkSuppCharCommon.exit.thread.us.us ], [ 0, %.lr.ph.split.us ]
  %.049.us.us = phi i32 [ %.1.us.us, %Abc_NtkSuppCharCommon.exit.thread.us.us ], [ -1, %.lr.ph.split.us ]
  %.02947.us.us = phi i32 [ %.130.us.us, %Abc_NtkSuppCharCommon.exit.thread.us.us ], [ 0, %.lr.ph.split.us ]
  %15 = getelementptr inbounds nuw ptr, ptr %.val37, i64 %indvars.iv62
  %16 = load ptr, ptr %15, align 8
  %17 = getelementptr inbounds nuw ptr, ptr %.val36, i64 %indvars.iv62
  %18 = load ptr, ptr %17, align 8
  br label %19

19:                                               ; preds = %19, %.lr.ph.i.us.us
  %indvars.iv.i.us.us = phi i64 [ 0, %.lr.ph.i.us.us ], [ %indvars.iv.next.i.us.us, %19 ]
  %.011.i.us.us = phi i32 [ 0, %.lr.ph.i.us.us ], [ %29, %19 ]
  %20 = getelementptr inbounds nuw i32, ptr %.val.i.us, i64 %indvars.iv.i.us.us
  %21 = load i32, ptr %20, align 4
  %22 = ashr i32 %21, 5
  %23 = sext i32 %22 to i64
  %24 = getelementptr inbounds i32, ptr %18, i64 %23
  %25 = load i32, ptr %24, align 4
  %26 = and i32 %21, 31
  %27 = lshr i32 %25, %26
  %28 = and i32 %27, 1
  %29 = add nuw nsw i32 %28, %.011.i.us.us
  %indvars.iv.next.i.us.us = add nuw nsw i64 %indvars.iv.i.us.us, 1
  %exitcond.not.i.us.us = icmp eq i64 %indvars.iv.next.i.us.us, %wide.trip.count.i
  br i1 %exitcond.not.i.us.us, label %Abc_NtkSuppCharCommon.exit.us.us, label %19, !llvm.loop !27

Abc_NtkSuppCharCommon.exit.us.us:                 ; preds = %19
  %30 = icmp eq i32 %29, 0
  br i1 %30, label %Abc_NtkSuppCharCommon.exit.thread.us.us, label %31

31:                                               ; preds = %Abc_NtkSuppCharCommon.exit.us.us
  %32 = icmp eq i32 %29, %.val9.i
  br i1 %32, label %.loopexit.loopexit, label %33

33:                                               ; preds = %31
  %34 = getelementptr i8, ptr %16, i64 4
  %.val41.us.us = load i32, ptr %34, align 4
  %.not.us.us = icmp slt i32 %.val41.us.us, %12
  br i1 %.not.us.us, label %35, label %Abc_NtkSuppCharCommon.exit.thread.us.us

35:                                               ; preds = %33
  %36 = mul nuw nsw i32 %29, 1000
  %37 = udiv i32 %36, %.val9.i
  %38 = icmp slt i32 %.val41.us.us, 100
  br i1 %38, label %45, label %Abc_Base2Log.exit.us.us

Abc_Base2Log.exit.us.us:                          ; preds = %35
  %39 = add nsw i32 %.val41.us.us, -100
  %40 = icmp samesign ult i32 %39, 2
  %41 = add nsw i32 %.val41.us.us, -101
  %42 = tail call range(i32 0, 33) i32 @llvm.ctlz.i32(i32 %41, i1 true)
  %43 = sub nuw nsw i32 32, %42
  %.09.i.us.us = select i1 %40, i32 %39, i32 %43
  %44 = add nuw nsw i32 %.09.i.us.us, 1
  br label %45

45:                                               ; preds = %Abc_Base2Log.exit.us.us, %35
  %.031.us.us = phi i32 [ %44, %Abc_Base2Log.exit.us.us ], [ 1, %35 ]
  %46 = udiv i32 %37, %.031.us.us
  %47 = icmp slt i32 %.02947.us.us, %46
  %spec.select.us.us = tail call i32 @llvm.smax.i32(i32 %.02947.us.us, i32 %46)
  %48 = trunc nuw nsw i64 %indvars.iv62 to i32
  %spec.select35.us.us = select i1 %47, i32 %48, i32 %.049.us.us
  br label %Abc_NtkSuppCharCommon.exit.thread.us.us

Abc_NtkSuppCharCommon.exit.thread.us.us:          ; preds = %45, %33, %Abc_NtkSuppCharCommon.exit.us.us
  %.130.us.us = phi i32 [ %.02947.us.us, %Abc_NtkSuppCharCommon.exit.us.us ], [ %.02947.us.us, %33 ], [ %spec.select.us.us, %45 ]
  %.1.us.us = phi i32 [ %.049.us.us, %Abc_NtkSuppCharCommon.exit.us.us ], [ %.049.us.us, %33 ], [ %spec.select35.us.us, %45 ]
  %indvars.iv.next63 = add nuw nsw i64 %indvars.iv62, 1
  %exitcond66.not = icmp eq i64 %indvars.iv.next63, %wide.trip.count65
  br i1 %exitcond66.not, label %.critedge, label %.lr.ph.i.us.us, !llvm.loop !28

.lr.ph.i.us:                                      ; preds = %.lr.ph.split.us, %Abc_NtkSuppCharCommon.exit.thread.us
  %indvars.iv = phi i64 [ %indvars.iv.next, %Abc_NtkSuppCharCommon.exit.thread.us ], [ 0, %.lr.ph.split.us ]
  %.049.us = phi i32 [ %.1.us, %Abc_NtkSuppCharCommon.exit.thread.us ], [ -1, %.lr.ph.split.us ]
  %.02947.us = phi i32 [ %.130.us, %Abc_NtkSuppCharCommon.exit.thread.us ], [ 0, %.lr.ph.split.us ]
  %49 = getelementptr inbounds nuw ptr, ptr %.val37, i64 %indvars.iv
  %50 = load ptr, ptr %49, align 8
  %51 = getelementptr inbounds nuw ptr, ptr %.val36, i64 %indvars.iv
  %52 = load ptr, ptr %51, align 8
  br label %53

53:                                               ; preds = %53, %.lr.ph.i.us
  %indvars.iv.i.us = phi i64 [ 0, %.lr.ph.i.us ], [ %indvars.iv.next.i.us, %53 ]
  %.011.i.us = phi i32 [ 0, %.lr.ph.i.us ], [ %63, %53 ]
  %54 = getelementptr inbounds nuw i32, ptr %.val.i.us, i64 %indvars.iv.i.us
  %55 = load i32, ptr %54, align 4
  %56 = ashr i32 %55, 5
  %57 = sext i32 %56 to i64
  %58 = getelementptr inbounds i32, ptr %52, i64 %57
  %59 = load i32, ptr %58, align 4
  %60 = and i32 %55, 31
  %61 = lshr i32 %59, %60
  %62 = and i32 %61, 1
  %63 = add nuw nsw i32 %62, %.011.i.us
  %indvars.iv.next.i.us = add nuw nsw i64 %indvars.iv.i.us, 1
  %exitcond.not.i.us = icmp eq i64 %indvars.iv.next.i.us, %wide.trip.count.i
  br i1 %exitcond.not.i.us, label %Abc_NtkSuppCharCommon.exit.us, label %53, !llvm.loop !27

Abc_NtkSuppCharCommon.exit.us:                    ; preds = %53
  %64 = icmp eq i32 %63, 0
  br i1 %64, label %Abc_NtkSuppCharCommon.exit.thread.us, label %65

65:                                               ; preds = %Abc_NtkSuppCharCommon.exit.us
  %66 = icmp eq i32 %63, %.val9.i
  br i1 %66, label %.loopexit.loopexit55, label %67

67:                                               ; preds = %65
  %68 = mul nuw nsw i32 %63, 1000
  %69 = udiv i32 %68, %.val9.i
  %70 = getelementptr i8, ptr %50, i64 4
  %.val39.us = load i32, ptr %70, align 4
  %71 = icmp slt i32 %.val39.us, 100
  br i1 %71, label %78, label %Abc_Base2Log.exit.us

Abc_Base2Log.exit.us:                             ; preds = %67
  %72 = add nsw i32 %.val39.us, -100
  %73 = icmp samesign ult i32 %72, 2
  %74 = add nsw i32 %.val39.us, -101
  %75 = tail call range(i32 0, 33) i32 @llvm.ctlz.i32(i32 %74, i1 true)
  %76 = sub nuw nsw i32 32, %75
  %.09.i.us = select i1 %73, i32 %72, i32 %76
  %77 = add nuw nsw i32 %.09.i.us, 1
  br label %78

78:                                               ; preds = %Abc_Base2Log.exit.us, %67
  %.031.us = phi i32 [ %77, %Abc_Base2Log.exit.us ], [ 1, %67 ]
  %79 = udiv i32 %69, %.031.us
  %80 = icmp slt i32 %.02947.us, %79
  %spec.select.us = tail call i32 @llvm.smax.i32(i32 %.02947.us, i32 %79)
  %81 = trunc nuw nsw i64 %indvars.iv to i32
  %spec.select35.us = select i1 %80, i32 %81, i32 %.049.us
  br label %Abc_NtkSuppCharCommon.exit.thread.us

Abc_NtkSuppCharCommon.exit.thread.us:             ; preds = %78, %Abc_NtkSuppCharCommon.exit.us
  %.130.us = phi i32 [ %.02947.us, %Abc_NtkSuppCharCommon.exit.us ], [ %spec.select.us, %78 ]
  %.1.us = phi i32 [ %.049.us, %Abc_NtkSuppCharCommon.exit.us ], [ %spec.select35.us, %78 ]
  %indvars.iv.next = add nuw nsw i64 %indvars.iv, 1
  %exitcond.not = icmp eq i64 %indvars.iv.next, %wide.trip.count65
  br i1 %exitcond.not, label %.critedge, label %.lr.ph.i.us, !llvm.loop !28

.critedge:                                        ; preds = %Abc_NtkSuppCharCommon.exit.thread.us, %Abc_NtkSuppCharCommon.exit.thread.us.us
  %.029.lcssa = phi i32 [ %.130.us.us, %Abc_NtkSuppCharCommon.exit.thread.us.us ], [ %.130.us, %Abc_NtkSuppCharCommon.exit.thread.us ]
  %.0.lcssa = phi i32 [ %.1.us.us, %Abc_NtkSuppCharCommon.exit.thread.us.us ], [ %.1.us, %Abc_NtkSuppCharCommon.exit.thread.us ]
  %.029.lcssa.fr = freeze i32 %.029.lcssa
  %82 = icmp slt i32 %.029.lcssa.fr, 75
  br i1 %82, label %.critedge.thread, label %.loopexit

.critedge.thread:                                 ; preds = %.lr.ph, %5, %.critedge
  br label %.loopexit

.loopexit.loopexit:                               ; preds = %31
  %83 = trunc nuw nsw i64 %indvars.iv62 to i32
  br label %.loopexit

.loopexit.loopexit55:                             ; preds = %65
  %84 = trunc nuw nsw i64 %indvars.iv to i32
  br label %.loopexit

.loopexit:                                        ; preds = %.critedge.thread, %.critedge, %.loopexit.loopexit55, %.loopexit.loopexit
  %.027 = phi i32 [ %83, %.loopexit.loopexit ], [ %84, %.loopexit.loopexit55 ], [ -1, %.critedge.thread ], [ %.0.lcssa, %.critedge ]
  ret i32 %.027
}